target datalayout = "e-m:e-p270:32:32-p271:32:32-p272:64:64-i64:64-i128:128-f80:128-n8:16:32:64-S128"
target triple = "x86_64-pc-linux-gnu"

%union.ufmt_args = type { i64 }
%struct.u_printf_spec_info = type { i32, i32, i16, i16, i16, i8, i8, i8, i8, i8, i8, i8, i8, i8 }
%struct.u_printf_stream_handler = type { ptr, ptr }

@_ZL8gNullStr = internal constant [7 x i16] [i16 40, i16 110, i16 117, i16 108, i16 108, i16 41, i16 0], align 2

; Function Attrs: mustprogress uwtable
define internal noundef i32 @_ZL23u_printf_string_handlerPK23u_printf_stream_handlerPvP13ULocaleBundlePK18u_printf_spec_infoPK9ufmt_args(ptr noundef %0, ptr noundef %1, ptr noundef %2, ptr noundef %3, ptr noundef %4) #0 {
  %6 = alloca i32, align 4
  %7 = alloca ptr, align 8
  %8 = alloca ptr, align 8
  %9 = alloca ptr, align 8
  %10 = alloca ptr, align 8
  %11 = alloca ptr, align 8
  %12 = alloca ptr, align 8
  %13 = alloca [128 x i16], align 16
  %14 = alloca i32, align 4
  %15 = alloca i32, align 4
  %16 = alloca i32, align 4
  %17 = alloca ptr, align 8
  %18 = alloca i32, align 4
  store ptr %0, ptr %7, align 8, !tbaa !3
  store ptr %1, ptr %8, align 8, !tbaa !10
  store ptr %2, ptr %9, align 8, !tbaa !13
  store ptr %3, ptr %10, align 8, !tbaa !19
  store ptr %4, ptr %11, align 8, !tbaa !21
  call void @llvm.lifetime.start.p0(i64 8, ptr %12) #9
  call void @llvm.lifetime.start.p0(i64 256, ptr %13) #9
  call void @llvm.lifetime.start.p0(i64 4, ptr %14) #9
  call void @llvm.lifetime.start.p0(i64 4, ptr %15) #9
  call void @llvm.lifetime.start.p0(i64 4, ptr %16) #9
  call void @llvm.lifetime.start.p0(i64 8, ptr %17) #9
  %19 = load ptr, ptr %11, align 8, !tbaa !21
  %20 = getelementptr inbounds %union.ufmt_args, ptr %19, i64 0
  %21 = load ptr, ptr %20, align 8, !tbaa !69
  store ptr %21, ptr %17, align 8, !tbaa !76
  %22 = load ptr, ptr %17, align 8, !tbaa !76
  %23 = icmp ne ptr %22, null
  br i1 %23, label %24, label %57

24:                                               ; preds = %5
  %25 = load ptr, ptr %17, align 8, !tbaa !76
  %26 = call i64 @strlen(ptr noundef %25) #11
  %27 = trunc i64 %26 to i32
  %28 = add nsw i32 %27, 1
  store i32 %28, ptr %16, align 4, !tbaa !36
  %29 = load i32, ptr %16, align 4, !tbaa !36
  %30 = icmp sge i32 %29, 64
  br i1 %30, label %31, label %51

31:                                               ; preds = %24
  %32 = load ptr, ptr %17, align 8, !tbaa !76
  %33 = load i32, ptr %16, align 4, !tbaa !36
  %34 = load i32, ptr %16, align 4, !tbaa !36
  %35 = add nsw i32 %34, 1
  %36 = mul nsw i32 %35, 2
  %37 = sext i32 %36 to i64
  %38 = mul i64 %37, 2
  %39 = call noalias ptr @uprv_malloc_77(i64 noundef %38) #10
  %40 = load i32, ptr %16, align 4, !tbaa !36
  %41 = add nsw i32 %40, 1
  %42 = mul nsw i32 %41, 2
  %43 = sext i32 %42 to i64
  %44 = mul i64 %43, 2
  %45 = trunc i64 %44 to i32
  %46 = call noundef ptr @_Z26ufmt_defaultCPToUnicode_77PKciPDsi(ptr noundef %32, i32 noundef %33, ptr noundef %39, i32 noundef %45)
  store ptr %46, ptr %12, align 8, !tbaa !8
  %47 = load ptr, ptr %12, align 8, !tbaa !8
  %48 = icmp eq ptr %47, null
  br i1 %48, label %49, label %50

49:                                               ; preds = %31
  store i32 0, ptr %6, align 4
  store i32 1, ptr %18, align 4
  br label %94

50:                                               ; preds = %31
  br label %56

51:                                               ; preds = %24
  %52 = load ptr, ptr %17, align 8, !tbaa !76
  %53 = load i32, ptr %16, align 4, !tbaa !36
  %54 = getelementptr inbounds [128 x i16], ptr %13, i64 0, i64 0
  %55 = call noundef ptr @_Z26ufmt_defaultCPToUnicode_77PKciPDsi(ptr noundef %52, i32 noundef %53, ptr noundef %54, i32 noundef 128)
  store ptr %55, ptr %12, align 8, !tbaa !8
  br label %56

56:                                               ; preds = %51, %50
  br label %58

57:                                               ; preds = %5
  store ptr @_ZL8gNullStr, ptr %12, align 8, !tbaa !8
  br label %58

58:                                               ; preds = %57, %56
  %59 = load ptr, ptr %12, align 8, !tbaa !8
  %60 = call i32 @u_strlen_77(ptr noundef %59)
  store i32 %60, ptr %14, align 4, !tbaa !36
  %61 = load ptr, ptr %10, align 8, !tbaa !19
  %62 = getelementptr inbounds nuw %struct.u_printf_spec_info, ptr %61, i32 0, i32 0
  %63 = load i32, ptr %62, align 4, !tbaa !42
  %64 = icmp ne i32 %63, -1
  br i1 %64, label %65, label %75

65:                                               ; preds = %58
  %66 = load ptr, ptr %10, align 8, !tbaa !19
  %67 = getelementptr inbounds nuw %struct.u_printf_spec_info, ptr %66, i32 0, i32 0
  %68 = load i32, ptr %67, align 4, !tbaa !42
  %69 = load i32, ptr %14, align 4, !tbaa !36
  %70 = icmp slt i32 %68, %69
  br i1 %70, label %71, label %75

71:                                               ; preds = %65
  %72 = load ptr, ptr %10, align 8, !tbaa !19
  %73 = getelementptr inbounds nuw %struct.u_printf_spec_info, ptr %72, i32 0, i32 0
  %74 = load i32, ptr %73, align 4, !tbaa !42
  store i32 %74, ptr %14, align 4, !tbaa !36
  br label %75

75:                                               ; preds = %71, %65, %58
  %76 = load ptr, ptr %7, align 8, !tbaa !3
  %77 = getelementptr inbounds nuw %struct.u_printf_stream_handler, ptr %76, i32 0, i32 1
  %78 = load ptr, ptr %77, align 8, !tbaa !85
  %79 = load ptr, ptr %8, align 8, !tbaa !10
  %80 = load ptr, ptr %10, align 8, !tbaa !19
  %81 = load ptr, ptr %12, align 8, !tbaa !8
  %82 = load i32, ptr %14, align 4, !tbaa !36
  %83 = call noundef i32 %78(ptr noundef %79, ptr noundef %80, ptr noundef %81, i32 noundef %82)
  store i32 %83, ptr %15, align 4, !tbaa !36
  %84 = load ptr, ptr %12, align 8, !tbaa !8
  %85 = icmp ne ptr @_ZL8gNullStr, %84
  br i1 %85, label %86, label %92

86:                                               ; preds = %75
  %87 = getelementptr inbounds [128 x i16], ptr %13, i64 0, i64 0
  %88 = load ptr, ptr %12, align 8, !tbaa !8
  %89 = icmp ne ptr %87, %88
  br i1 %89, label %90, label %92

90:                                               ; preds = %86
  %91 = load ptr, ptr %12, align 8, !tbaa !8
  call void @uprv_free_77(ptr noundef %91)
  br label %92

92:                                               ; preds = %90, %86, %75
  %93 = load i32, ptr %15, align 4, !tbaa !36
  store i32 %93, ptr %6, align 4
  store i32 1, ptr %18, align 4
  br label %94

94:                                               ; preds = %92, %49
  call void @llvm.lifetime.end.p0(i64 8, ptr %17) #9
  call void @llvm.lifetime.end.p0(i64 4, ptr %16) #9
  call void @llvm.lifetime.end.p0(i64 4, ptr %15) #9
  call void @llvm.lifetime.end.p0(i64 4, ptr %14) #9
  call void @llvm.lifetime.end.p0(i64 256, ptr %13) #9
  call void @llvm.lifetime.end.p0(i64 8, ptr %12) #9
  %95 = load i32, ptr %6, align 4
  ret i32 %95
}