; Function Attrs: mustprogress uwtable
define internal noundef i32 @_ZL23u_printf_string_handlerPK23u_printf_stream_handlerPvP13ULocaleBundlePK18u_printf_spec_infoPK9ufmt_args(ptr noundef readonly captures(none) %0, ptr noundef %1, ptr readnone captures(none) %2, ptr noundef %3, ptr noundef readonly captures(none) %4) #0 {
  %6 = alloca [128 x i16], align 16
  call void @llvm.lifetime.start.p0(i64 256, ptr nonnull %6) #9
  %7 = load ptr, ptr %4, align 8, !tbaa !20
  %.not = icmp eq ptr %7, null
  br i1 %.not, label %23, label %8

8:                                                ; preds = %5
  %9 = tail call i64 @strlen(ptr noundef nonnull dereferenceable(1) %7) #11
  %10 = trunc i64 %9 to i32
  %11 = add nsw i32 %10, 1
  %12 = icmp sgt i32 %10, 62
  br i1 %12, label %13, label %21

13:                                               ; preds = %8
  %14 = shl i64 %9, 2
  %15 = add nuw nsw i64 %14, 8
  %16 = and i64 %15, 8589934588
  %17 = tail call noalias ptr @uprv_malloc_77(i64 noundef %16) #10
  %18 = trunc i64 %15 to i32
  %19 = tail call noundef ptr @_Z26ufmt_defaultCPToUnicode_77PKciPDsi(ptr noundef nonnull %7, i32 noundef %11, ptr noundef %17, i32 noundef %18)
  %20 = icmp eq ptr %19, null
  br i1 %20, label %33, label %23

21:                                               ; preds = %8
  %22 = call noundef ptr @_Z26ufmt_defaultCPToUnicode_77PKciPDsi(ptr noundef nonnull %7, i32 noundef %11, ptr noundef nonnull %6, i32 noundef 128)
  br label %23

23:                                               ; preds = %5, %21, %13
  %.027 = phi ptr [ %19, %13 ], [ %22, %21 ], [ @_ZL8gNullStr, %5 ]
  %24 = call i32 @u_strlen_77(ptr noundef %.027)
  %25 = load i32, ptr %3, align 4, !tbaa !42
  %.not34.not = icmp eq i32 %25, -1
  %26 = call i32 @llvm.smin.i32(i32 %25, i32 %24)
  %.028 = select i1 %.not34.not, i32 %24, i32 %26
  %27 = getelementptr inbounds nuw i8, ptr %0, i64 8
  %28 = load ptr, ptr %27, align 8, !tbaa !64
  %29 = call noundef i32 %28(ptr noundef %1, ptr noundef nonnull %3, ptr noundef %.027, i32 noundef %.028)
  %30 = icmp ne ptr %.027, @_ZL8gNullStr
  %31 = icmp ne ptr %6, %.027
  %or.cond = and i1 %30, %31
  br i1 %or.cond, label %32, label %33

32:                                               ; preds = %23
  call void @uprv_free_77(ptr noundef %.027)
  br label %33

33:                                               ; preds = %23, %32, %13
  %.0 = phi i32 [ 0, %13 ], [ %29, %32 ], [ %29, %23 ]
  call void @llvm.lifetime.end.p0(i64 256, ptr nonnull %6) #9
  ret i32 %.0
}